target datalayout = "e-m:e-p270:32:32-p271:32:32-p272:64:64-i64:64-i128:128-f80:128-n8:16:32:64-S128"
target triple = "x86_64-pc-linux-gnu"

%struct._address = type { i32, i32, ptr, ptr }
%struct._packet_info = type { ptr, ptr, i32, i32, %struct.nstime_t, %struct.nstime_t, %struct.nstime_t, i8, ptr, ptr, ptr, ptr, %struct._address, %struct._address, %struct._address, %struct._address, %struct._address, %struct._address, i32, ptr, i8, [3 x i8], %struct.anon, i32, i32, i32, i32, ptr, i8, ptr, ptr, i16, i16, i32, i32, i16, i32, i32, ptr, ptr, ptr, i8, i8, i16, i16, i16, i32, i16, i16, ptr, ptr, ptr, ptr, ptr, i32, i32 }
%struct.nstime_t = type { i64, i32 }
%struct.anon = type { i8, [3 x i8] }
%struct.reassembly_table = type { ptr, ptr, ptr, ptr, ptr }
%struct._fragment_head = type { ptr, ptr, i32, i32, i32, i32, i32, i32, i32, i8, i32, ptr, ptr }
%struct._reassembled_key = type { i32, i32 }
%struct._frame_data = type <{ i32, i32, i32, i32, i32, [4 x i8], i64, ptr, ptr, ptr, i8, i16, [5 x i8], %struct.nstime_t, %struct.nstime_t, i32, i32 }>

; Function Attrs: alwaysinline nounwind
define internal ptr @memset.inline(ptr %0, i32 %1, i64 %2) #13 {
  %4 = alloca ptr, align 8
  %5 = alloca i32, align 4
  %6 = alloca i64, align 8
  store ptr %0, ptr %4, align 8
  store i32 %1, ptr %5, align 4
  store i64 %2, ptr %6, align 8
  %7 = load ptr, ptr %4, align 8
  %8 = load i32, ptr %5, align 4
  %9 = load i64, ptr %6, align 8
  %10 = load ptr, ptr %4, align 8
  %11 = call i64 @llvm.objectsize.i64.p0(ptr %10, i1 false, i1 true, i1 true)
  %12 = call ptr @__memset_chk(ptr noundef %7, i32 noundef %8, i64 noundef %9, i64 noundef %11) #16
  ret ptr %12
}

; Function Attrs: null_pointer_is_valid sspstrong uwtable
define internal void @fragment_unhash(ptr noundef %0, ptr noundef %1) #1 {
  %3 = alloca ptr, align 8
  %4 = alloca ptr, align 8
  store ptr %0, ptr %3, align 8
  store ptr %1, ptr %4, align 8
  %5 = load ptr, ptr %3, align 8
  %6 = getelementptr inbounds nuw %struct.reassembly_table, ptr %5, i32 0, i32 0
  %7 = load ptr, ptr %6, align 8
  %8 = load ptr, ptr %4, align 8
  %9 = call i32 @g_hash_table_remove(ptr noundef %7, ptr noundef %8)
  ret void
}

; Function Attrs: null_pointer_is_valid sspstrong uwtable
define internal ptr @insert_fd_head(ptr noundef %0, ptr noundef %1, ptr noundef %2, i32 noundef %3, ptr noundef %4) #1 {
  %6 = alloca ptr, align 8
  %7 = alloca ptr, align 8
  %8 = alloca ptr, align 8
  %9 = alloca i32, align 4
  %10 = alloca ptr, align 8
  %11 = alloca ptr, align 8
  store ptr %0, ptr %6, align 8
  store ptr %1, ptr %7, align 8
  store ptr %2, ptr %8, align 8
  store i32 %3, ptr %9, align 4
  store ptr %4, ptr %10, align 8
  call void @llvm.lifetime.start.p0(i64 8, ptr %11) #16
  %12 = load ptr, ptr %6, align 8
  %13 = getelementptr inbounds nuw %struct.reassembly_table, ptr %12, i32 0, i32 3
  %14 = load ptr, ptr %13, align 8
  %15 = load ptr, ptr %8, align 8
  %16 = load i32, ptr %9, align 4
  %17 = load ptr, ptr %10, align 8
  %18 = call ptr %14(ptr noundef %15, i32 noundef %16, ptr noundef %17)
  store ptr %18, ptr %11, align 8
  %19 = load ptr, ptr %6, align 8
  %20 = getelementptr inbounds nuw %struct.reassembly_table, ptr %19, i32 0, i32 0
  %21 = load ptr, ptr %20, align 8
  %22 = load ptr, ptr %11, align 8
  %23 = load ptr, ptr %7, align 8
  %24 = call i32 @g_hash_table_insert(ptr noundef %21, ptr noundef %22, ptr noundef %23)
  %25 = load ptr, ptr %11, align 8
  call void @llvm.lifetime.end.p0(i64 8, ptr %11) #16
  ret ptr %25
}

; Function Attrs: null_pointer_is_valid sspstrong uwtable
define internal ptr @new_head(i32 noundef %0) #1 {
  %2 = alloca i32, align 4
  %3 = alloca ptr, align 8
  %4 = alloca i64, align 8
  %5 = alloca ptr, align 8
  %6 = alloca ptr, align 8
  store i32 %0, ptr %2, align 4
  call void @llvm.lifetime.start.p0(i64 8, ptr %3) #16
  call void @llvm.lifetime.start.p0(i64 8, ptr %4) #16
  store i64 72, ptr %4, align 8
  call void @llvm.lifetime.start.p0(i64 8, ptr %5) #16
  %7 = load i64, ptr %4, align 8
  %8 = call noalias ptr @g_slice_alloc(i64 noundef %7) #17
  store ptr %8, ptr %5, align 8
  %9 = load ptr, ptr %5, align 8
  %10 = load i64, ptr %4, align 8
  %11 = call ptr @memset.inline(ptr noundef %9, i32 noundef 0, i64 noundef %10) #16
  %12 = load ptr, ptr %5, align 8
  store ptr %12, ptr %6, align 8
  call void @llvm.lifetime.end.p0(i64 8, ptr %5) #16
  call void @llvm.lifetime.end.p0(i64 8, ptr %4) #16
  %13 = load ptr, ptr %6, align 8
  store ptr %13, ptr %3, align 8
  %14 = load i32, ptr %2, align 4
  %15 = load ptr, ptr %3, align 8
  %16 = getelementptr inbounds nuw %struct._fragment_head, ptr %15, i32 0, i32 10
  store i32 %14, ptr %16, align 8
  %17 = load ptr, ptr %3, align 8
  call void @llvm.lifetime.end.p0(i64 8, ptr %3) #16
  ret ptr %17
}

; Function Attrs: null_pointer_is_valid sspstrong uwtable
define internal void @reassembled_table_insert(ptr noundef %0, ptr noundef %1, ptr noundef %2) #1 {
  %4 = alloca ptr, align 8
  %5 = alloca ptr, align 8
  %6 = alloca ptr, align 8
  %7 = alloca ptr, align 8
  store ptr %0, ptr %4, align 8
  store ptr %1, ptr %5, align 8
  store ptr %2, ptr %6, align 8
  call void @llvm.lifetime.start.p0(i64 8, ptr %7) #16
  %8 = load ptr, ptr %6, align 8
  %9 = getelementptr inbounds nuw %struct._fragment_head, ptr %8, i32 0, i32 2
  %10 = load i32, ptr %9, align 8
  %11 = add i32 %10, 1
  store i32 %11, ptr %9, align 8
  %12 = load ptr, ptr %4, align 8
  %13 = load ptr, ptr %5, align 8
  %14 = call ptr @g_hash_table_lookup(ptr noundef %12, ptr noundef %13)
  store ptr %14, ptr %7, align 8
  %15 = icmp ne ptr %14, null
  br i1 %15, label %16, label %42

16:                                               ; preds = %3
  %17 = load ptr, ptr %7, align 8
  %18 = getelementptr inbounds nuw %struct._fragment_head, ptr %17, i32 0, i32 2
  %19 = load i32, ptr %18, align 8
  %20 = icmp eq i32 %19, 1
  br i1 %20, label %21, label %41

21:                                               ; preds = %16
  %22 = load ptr, ptr %7, align 8
  %23 = getelementptr inbounds nuw %struct._fragment_head, ptr %22, i32 0, i32 11
  %24 = load ptr, ptr %23, align 8
  %25 = icmp ne ptr %24, null
  br i1 %25, label %26, label %38

26:                                               ; preds = %21
  %27 = load ptr, ptr %6, align 8
  %28 = getelementptr inbounds nuw %struct._fragment_head, ptr %27, i32 0, i32 11
  %29 = load ptr, ptr %28, align 8
  %30 = icmp ne ptr %29, null
  br i1 %30, label %31, label %38

31:                                               ; preds = %26
  %32 = load ptr, ptr %6, align 8
  %33 = getelementptr inbounds nuw %struct._fragment_head, ptr %32, i32 0, i32 11
  %34 = load ptr, ptr %33, align 8
  %35 = load ptr, ptr %7, align 8
  %36 = getelementptr inbounds nuw %struct._fragment_head, ptr %35, i32 0, i32 11
  %37 = load ptr, ptr %36, align 8
  call void @tvb_set_child_real_data_tvbuff(ptr noundef %34, ptr noundef %37)
  br label %38

38:                                               ; preds = %31, %26, %21
  %39 = load ptr, ptr %7, align 8
  %40 = getelementptr inbounds nuw %struct._fragment_head, ptr %39, i32 0, i32 11
  store ptr null, ptr %40, align 8
  br label %41

41:                                               ; preds = %38, %16
  br label %42

42:                                               ; preds = %41, %3
  %43 = load ptr, ptr %4, align 8
  %44 = load ptr, ptr %5, align 8
  %45 = load ptr, ptr %6, align 8
  %46 = call i32 @g_hash_table_insert(ptr noundef %43, ptr noundef %44, ptr noundef %45)
  call void @llvm.lifetime.end.p0(i64 8, ptr %7) #16
  ret void
}

; Function Attrs: null_pointer_is_valid sspstrong uwtable
define internal ptr @lookup_fd_head(ptr noundef %0, ptr noundef %1, i32 noundef %2, ptr noundef %3, ptr noundef %4) #1 {
  %6 = alloca ptr, align 8
  %7 = alloca ptr, align 8
  %8 = alloca i32, align 4
  %9 = alloca ptr, align 8
  %10 = alloca ptr, align 8
  %11 = alloca ptr, align 8
  %12 = alloca ptr, align 8
  store ptr %0, ptr %6, align 8
  store ptr %1, ptr %7, align 8
  store i32 %2, ptr %8, align 4
  store ptr %3, ptr %9, align 8
  store ptr %4, ptr %10, align 8
  call void @llvm.lifetime.start.p0(i64 8, ptr %11) #16
  call void @llvm.lifetime.start.p0(i64 8, ptr %12) #16
  %13 = load ptr, ptr %6, align 8
  %14 = getelementptr inbounds nuw %struct.reassembly_table, ptr %13, i32 0, i32 2
  %15 = load ptr, ptr %14, align 8
  %16 = load ptr, ptr %7, align 8
  %17 = load i32, ptr %8, align 4
  %18 = load ptr, ptr %9, align 8
  %19 = call ptr %15(ptr noundef %16, i32 noundef %17, ptr noundef %18)
  store ptr %19, ptr %11, align 8
  %20 = load ptr, ptr %6, align 8
  %21 = getelementptr inbounds nuw %struct.reassembly_table, ptr %20, i32 0, i32 0
  %22 = load ptr, ptr %21, align 8
  %23 = load ptr, ptr %11, align 8
  %24 = load ptr, ptr %10, align 8
  %25 = call i32 @g_hash_table_lookup_extended(ptr noundef %22, ptr noundef %23, ptr noundef %24, ptr noundef %12)
  %26 = icmp ne i32 %25, 0
  br i1 %26, label %28, label %27

27:                                               ; preds = %5
  store ptr null, ptr %12, align 8
  br label %28

28:                                               ; preds = %27, %5
  %29 = load ptr, ptr %6, align 8
  %30 = getelementptr inbounds nuw %struct.reassembly_table, ptr %29, i32 0, i32 4
  %31 = load ptr, ptr %30, align 8
  %32 = load ptr, ptr %11, align 8
  call void %31(ptr noundef %32)
  %33 = load ptr, ptr %12, align 8
  call void @llvm.lifetime.end.p0(i64 8, ptr %12) #16
  call void @llvm.lifetime.end.p0(i64 8, ptr %11) #16
  ret ptr %33
}

; Function Attrs: null_pointer_is_valid sspstrong uwtable
define ptr @fragment_add_check_with_fallback(ptr noundef %0, ptr noundef %1, i32 noundef %2, ptr noundef %3, i32 noundef %4, ptr noundef %5, i32 noundef %6, i32 noundef %7, i1 noundef zeroext %8, i32 noundef %9) #1 {
  %11 = alloca ptr, align 8
  %12 = alloca ptr, align 8
  %13 = alloca ptr, align 8
  %14 = alloca i32, align 4
  %15 = alloca ptr, align 8
  %16 = alloca i32, align 4
  %17 = alloca ptr, align 8
  %18 = alloca i32, align 4
  %19 = alloca i32, align 4
  %20 = alloca i8, align 1
  %21 = alloca i32, align 4
  %22 = alloca %struct._reassembled_key, align 4
  %23 = alloca ptr, align 8
  %24 = alloca ptr, align 8
  %25 = alloca i8, align 1
  %26 = alloca i32, align 4
  %27 = alloca ptr, align 8
  store ptr %0, ptr %12, align 8
  store ptr %1, ptr %13, align 8
  store i32 %2, ptr %14, align 4
  store ptr %3, ptr %15, align 8
  store i32 %4, ptr %16, align 4
  store ptr %5, ptr %17, align 8
  store i32 %6, ptr %18, align 4
  store i32 %7, ptr %19, align 4
  %28 = zext i1 %8 to i8
  store i8 %28, ptr %20, align 1
  store i32 %9, ptr %21, align 4
  call void @llvm.lifetime.start.p0(i64 8, ptr %22) #16
  call void @llvm.lifetime.start.p0(i64 8, ptr %23) #16
  call void @llvm.lifetime.start.p0(i64 8, ptr %24) #16
  call void @llvm.lifetime.start.p0(i64 1, ptr %25) #16
  store i8 0, ptr %25, align 1
  %29 = load ptr, ptr %15, align 8
  %30 = getelementptr inbounds nuw %struct._packet_info, ptr %29, i32 0, i32 8
  %31 = load ptr, ptr %30, align 8
  %32 = getelementptr inbounds nuw %struct._frame_data, ptr %31, i32 0, i32 11
  %33 = load i16, ptr %32, align 1
  %34 = lshr i16 %33, 3
  %35 = and i16 %34, 1
  %36 = zext i16 %35 to i32
  %37 = icmp ne i32 %36, 0
  br i1 %37, label %38, label %49

38:                                               ; preds = %10
  %39 = load ptr, ptr %15, align 8
  %40 = getelementptr inbounds nuw %struct._packet_info, ptr %39, i32 0, i32 3
  %41 = load i32, ptr %40, align 4
  %42 = getelementptr inbounds nuw %struct._reassembled_key, ptr %22, i32 0, i32 1
  store i32 %41, ptr %42, align 4
  %43 = load i32, ptr %16, align 4
  %44 = getelementptr inbounds nuw %struct._reassembled_key, ptr %22, i32 0, i32 0
  store i32 %43, ptr %44, align 4
  %45 = load ptr, ptr %12, align 8
  %46 = getelementptr inbounds nuw %struct.reassembly_table, ptr %45, i32 0, i32 1
  %47 = load ptr, ptr %46, align 8
  %48 = call ptr @g_hash_table_lookup(ptr noundef %47, ptr noundef %22)
  store ptr %48, ptr %11, align 8
  store i32 1, ptr %26, align 4
  br label %136

49:                                               ; preds = %10
  %50 = load ptr, ptr %12, align 8
  %51 = load ptr, ptr %15, align 8
  %52 = load i32, ptr %16, align 4
  %53 = load ptr, ptr %17, align 8
  %54 = call ptr @lookup_fd_head(ptr noundef %50, ptr noundef %51, i32 noundef %52, ptr noundef %53, ptr noundef %24)
  store ptr %54, ptr %23, align 8
  %55 = load ptr, ptr %23, align 8
  %56 = icmp eq ptr %55, null
  br i1 %56, label %57, label %90

57:                                               ; preds = %49
  %58 = load i32, ptr %21, align 4
  %59 = load ptr, ptr %15, align 8
  %60 = getelementptr inbounds nuw %struct._packet_info, ptr %59, i32 0, i32 3
  %61 = load i32, ptr %60, align 4
  %62 = icmp ne i32 %58, %61
  br i1 %62, label %63, label %90

63:                                               ; preds = %57
  %64 = load i32, ptr %21, align 4
  %65 = getelementptr inbounds nuw %struct._reassembled_key, ptr %22, i32 0, i32 1
  store i32 %64, ptr %65, align 4
  %66 = load i32, ptr %16, align 4
  %67 = getelementptr inbounds nuw %struct._reassembled_key, ptr %22, i32 0, i32 0
  store i32 %66, ptr %67, align 4
  %68 = load ptr, ptr %12, align 8
  %69 = getelementptr inbounds nuw %struct.reassembly_table, ptr %68, i32 0, i32 1
  %70 = load ptr, ptr %69, align 8
  %71 = call ptr @g_hash_table_lookup(ptr noundef %70, ptr noundef %22)
  store ptr %71, ptr %23, align 8
  %72 = load ptr, ptr %23, align 8
  %73 = icmp ne ptr %72, null
  br i1 %73, label %74, label %89

74:                                               ; preds = %63
  call void @llvm.lifetime.start.p0(i64 8, ptr %27) #16
  %75 = call noalias ptr @g_slice_alloc(i64 noundef 8) #17
  store ptr %75, ptr %27, align 8
  %76 = load ptr, ptr %15, align 8
  %77 = getelementptr inbounds nuw %struct._packet_info, ptr %76, i32 0, i32 3
  %78 = load i32, ptr %77, align 4
  %79 = load ptr, ptr %27, align 8
  %80 = getelementptr inbounds nuw %struct._reassembled_key, ptr %79, i32 0, i32 1
  store i32 %78, ptr %80, align 4
  %81 = load i32, ptr %16, align 4
  %82 = load ptr, ptr %27, align 8
  %83 = getelementptr inbounds nuw %struct._reassembled_key, ptr %82, i32 0, i32 0
  store i32 %81, ptr %83, align 4
  %84 = load ptr, ptr %12, align 8
  %85 = getelementptr inbounds nuw %struct.reassembly_table, ptr %84, i32 0, i32 1
  %86 = load ptr, ptr %85, align 8
  %87 = load ptr, ptr %27, align 8
  %88 = load ptr, ptr %23, align 8
  call void @reassembled_table_insert(ptr noundef %86, ptr noundef %87, ptr noundef %88)
  store i8 1, ptr %25, align 1
  call void @llvm.lifetime.end.p0(i64 8, ptr %27) #16
  br label %89

89:                                               ; preds = %74, %63
  br label %90

90:                                               ; preds = %89, %57, %49
  %91 = load ptr, ptr %23, align 8
  %92 = icmp eq ptr %91, null
  br i1 %92, label %93, label %101

93:                                               ; preds = %90
  %94 = call ptr @new_head(i32 noundef 0)
  store ptr %94, ptr %23, align 8
  %95 = load ptr, ptr %12, align 8
  %96 = load ptr, ptr %23, align 8
  %97 = load ptr, ptr %15, align 8
  %98 = load i32, ptr %16, align 4
  %99 = load ptr, ptr %17, align 8
  %100 = call ptr @insert_fd_head(ptr noundef %95, ptr noundef %96, ptr noundef %97, i32 noundef %98, ptr noundef %99)
  store ptr %100, ptr %24, align 8
  br label %101

101:                                              ; preds = %93, %90
  %102 = load ptr, ptr %13, align 8
  %103 = load i32, ptr %14, align 4
  %104 = load i32, ptr %19, align 4
  %105 = call zeroext i1 @tvb_bytes_exist(ptr noundef %102, i32 noundef %103, i32 noundef %104)
  br i1 %105, label %107, label %106

106:                                              ; preds = %101
  store ptr null, ptr %11, align 8
  store i32 1, ptr %26, align 4
  br label %136

107:                                              ; preds = %101
  %108 = load ptr, ptr %23, align 8
  %109 = load ptr, ptr %13, align 8
  %110 = load i32, ptr %14, align 4
  %111 = load ptr, ptr %15, align 8
  %112 = load i32, ptr %18, align 4
  %113 = load i32, ptr %19, align 4
  %114 = load i8, ptr %20, align 1, !range !13, !noundef !14
  %115 = trunc i8 %114 to i1
  %116 = load ptr, ptr %15, align 8
  %117 = getelementptr inbounds nuw %struct._packet_info, ptr %116, i32 0, i32 3
  %118 = load i32, ptr %117, align 4
  %119 = load i8, ptr %25, align 1, !range !13, !noundef !14
  %120 = trunc i8 %119 to i1
  %121 = call zeroext i1 @fragment_add_work(ptr noundef %108, ptr noundef %109, i32 noundef %110, ptr noundef %111, i32 noundef %112, i32 noundef %113, i1 noundef zeroext %115, i32 noundef %118, i1 noundef zeroext %120)
  br i1 %121, label %122, label %135

122:                                              ; preds = %107
  %123 = load i8, ptr %25, align 1, !range !13, !noundef !14
  %124 = trunc i8 %123 to i1
  br i1 %124, label %125, label %127

125:                                              ; preds = %122
  %126 = load ptr, ptr %23, align 8
  store ptr %126, ptr %11, align 8
  store i32 1, ptr %26, align 4
  br label %136

127:                                              ; preds = %122
  %128 = load ptr, ptr %12, align 8
  %129 = load ptr, ptr %24, align 8
  call void @fragment_unhash(ptr noundef %128, ptr noundef %129)
  %130 = load ptr, ptr %12, align 8
  %131 = load ptr, ptr %23, align 8
  %132 = load ptr, ptr %15, align 8
  %133 = load i32, ptr %16, align 4
  call void @fragment_reassembled(ptr noundef %130, ptr noundef %131, ptr noundef %132, i32 noundef %133)
  %134 = load ptr, ptr %23, align 8
  store ptr %134, ptr %11, align 8
  store i32 1, ptr %26, align 4
  br label %136

135:                                              ; preds = %107
  store ptr null, ptr %11, align 8
  store i32 1, ptr %26, align 4
  br label %136

136:                                              ; preds = %135, %127, %125, %106, %38
  call void @llvm.lifetime.end.p0(i64 1, ptr %25) #16
  call void @llvm.lifetime.end.p0(i64 8, ptr %24) #16
  call void @llvm.lifetime.end.p0(i64 8, ptr %23) #16
  call void @llvm.lifetime.end.p0(i64 8, ptr %22) #16
  %137 = load ptr, ptr %11, align 8
  ret ptr %137
}