; Function Attrs: null_pointer_is_valid sspstrong uwtable
define ptr @fragment_add_check_with_fallback(ptr noundef readonly captures(none) %0, ptr noundef %1, i32 noundef %2, ptr noundef %3, i32 noundef %4, ptr noundef %5, i32 noundef %6, i32 noundef %7, i1 noundef zeroext %8, i32 noundef %9) local_unnamed_addr #2 {
  %11 = alloca ptr, align 8
  %12 = alloca %struct._reassembled_key, align 4
  %13 = alloca ptr, align 8
  call void @llvm.lifetime.start.p0(i64 8, ptr nonnull %12) #18
  call void @llvm.lifetime.start.p0(i64 8, ptr nonnull %13) #18
  %14 = getelementptr inbounds nuw i8, ptr %3, i64 80
  %15 = load ptr, ptr %14, align 8
  %16 = getelementptr inbounds nuw i8, ptr %15, i64 57
  %17 = load i16, ptr %16, align 1
  %18 = and i16 %17, 8
  %.not = icmp eq i16 %18, 0
  br i1 %.not, label %26, label %19

19:                                               ; preds = %10
  %20 = getelementptr inbounds nuw i8, ptr %3, i64 20
  %21 = load i32, ptr %20, align 4
  %22 = getelementptr inbounds nuw i8, ptr %12, i64 4
  store i32 %21, ptr %22, align 4
  store i32 %4, ptr %12, align 4
  %23 = getelementptr inbounds nuw i8, ptr %0, i64 8
  %24 = load ptr, ptr %23, align 8
  %25 = call ptr @g_hash_table_lookup(ptr noundef %24, ptr noundef nonnull %12)
  br label %83

26:                                               ; preds = %10
  call void @llvm.lifetime.start.p0(i64 8, ptr nonnull %11) #18
  %27 = getelementptr inbounds nuw i8, ptr %0, i64 16
  %28 = load ptr, ptr %27, align 8
  %29 = tail call ptr %28(ptr noundef %3, i32 noundef %4, ptr noundef %5)
  %30 = load ptr, ptr %0, align 8
  %31 = call i32 @g_hash_table_lookup_extended(ptr noundef %30, ptr noundef %29, ptr noundef nonnull %13, ptr noundef nonnull %11)
  %.not.i = icmp eq i32 %31, 0
  br i1 %.not.i, label %32, label %lookup_fd_head.exit

32:                                               ; preds = %26
  store ptr null, ptr %11, align 8
  br label %lookup_fd_head.exit

lookup_fd_head.exit:                              ; preds = %26, %32
  %33 = getelementptr inbounds nuw i8, ptr %0, i64 32
  %34 = load ptr, ptr %33, align 8
  call void %34(ptr noundef %29)
  %35 = load ptr, ptr %11, align 8
  call void @llvm.lifetime.end.p0(i64 8, ptr nonnull %11) #18
  %36 = icmp eq ptr %35, null
  br i1 %36, label %37, label %74

37:                                               ; preds = %lookup_fd_head.exit
  %38 = getelementptr inbounds nuw i8, ptr %3, i64 20
  %39 = load i32, ptr %38, align 4
  %.not55 = icmp eq i32 %9, %39
  br i1 %.not55, label %67, label %40

40:                                               ; preds = %37
  %41 = getelementptr inbounds nuw i8, ptr %12, i64 4
  store i32 %9, ptr %41, align 4
  store i32 %4, ptr %12, align 4
  %42 = getelementptr inbounds nuw i8, ptr %0, i64 8
  %43 = load ptr, ptr %42, align 8
  %44 = call ptr @g_hash_table_lookup(ptr noundef %43, ptr noundef nonnull %12)
  %.not56 = icmp eq ptr %44, null
  br i1 %.not56, label %67, label %45

45:                                               ; preds = %40
  %46 = call noalias dereferenceable_or_null(8) ptr @g_slice_alloc(i64 noundef 8) #15
  %47 = load i32, ptr %38, align 4
  %48 = getelementptr inbounds nuw i8, ptr %46, i64 4
  store i32 %47, ptr %48, align 4
  store i32 %4, ptr %46, align 4
  %49 = load ptr, ptr %42, align 8
  %50 = getelementptr inbounds nuw i8, ptr %44, i64 16
  %51 = load i32, ptr %50, align 8
  %52 = add i32 %51, 1
  store i32 %52, ptr %50, align 8
  %53 = call ptr @g_hash_table_lookup(ptr noundef %49, ptr noundef %46)
  %.not.i58 = icmp eq ptr %53, null
  br i1 %.not.i58, label %reassembled_table_insert.exit, label %54

54:                                               ; preds = %45
  %55 = getelementptr inbounds nuw i8, ptr %53, i64 16
  %56 = load i32, ptr %55, align 8
  %57 = icmp eq i32 %56, 1
  br i1 %57, label %58, label %reassembled_table_insert.exit

58:                                               ; preds = %54
  %59 = getelementptr inbounds nuw i8, ptr %53, i64 56
  %60 = load ptr, ptr %59, align 8
  %.not14.i = icmp eq ptr %60, null
  br i1 %.not14.i, label %65, label %61

61:                                               ; preds = %58
  %62 = getelementptr inbounds nuw i8, ptr %44, i64 56
  %63 = load ptr, ptr %62, align 8
  %.not15.i = icmp eq ptr %63, null
  br i1 %.not15.i, label %65, label %64

64:                                               ; preds = %61
  call void @tvb_set_child_real_data_tvbuff(ptr noundef nonnull %63, ptr noundef nonnull %60)
  br label %65

65:                                               ; preds = %64, %61, %58
  store ptr null, ptr %59, align 8
  br label %reassembled_table_insert.exit

reassembled_table_insert.exit:                    ; preds = %45, %54, %65
  %66 = call i32 @g_hash_table_insert(ptr noundef %49, ptr noundef %46, ptr noundef nonnull %44)
  br label %74

67:                                               ; preds = %40, %37
  %68 = call noalias noundef dereferenceable_or_null(72) ptr @g_slice_alloc(i64 noundef 72) #15
  %69 = getelementptr inbounds nuw i8, ptr %0, i64 24
  call void @llvm.memset.p0.i64(ptr noundef align 1 dereferenceable(72) %68, i8 0, i64 72, i1 false)
  %70 = load ptr, ptr %69, align 8
  %71 = call ptr %70(ptr noundef %3, i32 noundef %4, ptr noundef %5)
  %72 = load ptr, ptr %0, align 8
  %73 = call i32 @g_hash_table_insert(ptr noundef %72, ptr noundef %71, ptr noundef %68)
  store ptr %71, ptr %13, align 8
  br label %74

74:                                               ; preds = %lookup_fd_head.exit, %reassembled_table_insert.exit, %67
  %.04861 = phi i1 [ false, %67 ], [ true, %reassembled_table_insert.exit ], [ false, %lookup_fd_head.exit ]
  %.1 = phi ptr [ %68, %67 ], [ %44, %reassembled_table_insert.exit ], [ %35, %lookup_fd_head.exit ]
  %75 = call zeroext i1 @tvb_bytes_exist(ptr noundef %1, i32 noundef %2, i32 noundef %7)
  br i1 %75, label %76, label %83

76:                                               ; preds = %74
  %77 = getelementptr inbounds nuw i8, ptr %3, i64 20
  %78 = load i32, ptr %77, align 4
  %79 = call fastcc zeroext i1 @fragment_add_work(ptr noundef %.1, ptr noundef %1, i32 noundef %2, ptr noundef %3, i32 noundef %6, i32 noundef %7, i1 noundef zeroext %8, i32 noundef %78, i1 noundef zeroext %.04861)
  %.not57 = xor i1 %79, true
  %brmerge = or i1 %.04861, %.not57
  %.mux = select i1 %79, ptr %.1, ptr null
  br i1 %brmerge, label %83, label %80

80:                                               ; preds = %76
  %81 = load ptr, ptr %13, align 8
  %.val = load ptr, ptr %0, align 8
  %82 = call i32 @g_hash_table_remove(ptr noundef %.val, ptr noundef %81)
  call fastcc void @fragment_reassembled(ptr noundef %0, ptr noundef %.1, ptr noundef %3, i32 noundef %4)
  br label %83

83:                                               ; preds = %76, %74, %80, %19
  %.0 = phi ptr [ %25, %19 ], [ %.1, %80 ], [ null, %74 ], [ %.mux, %76 ]
  call void @llvm.lifetime.end.p0(i64 8, ptr nonnull %13) #18
  call void @llvm.lifetime.end.p0(i64 8, ptr nonnull %12) #18
  ret ptr %.0
}